target datalayout = "e-m:e-p270:32:32-p271:32:32-p272:64:64-i64:64-i128:128-f80:128-n8:16:32:64-S128"
target triple = "x86_64-unknown-linux-gnu"

%"struct.absl::container_internal::internal_compressed_tuple::Storage" = type { i64 }
%"class.absl::FixedArray.42" = type { %"class.absl::FixedArray<testing::ThrowingValue<testing::TypeSpec::kEverythingThrows>, 25, testing::ThrowingAllocator<testing::ThrowingValue<testing::TypeSpec::kEverythingThrows>, testing::AllocSpec::kEverythingThrows>>::Storage" }
%"class.absl::FixedArray<testing::ThrowingValue<testing::TypeSpec::kEverythingThrows>, 25, testing::ThrowingAllocator<testing::ThrowingValue<testing::TypeSpec::kEverythingThrows>, testing::AllocSpec::kEverythingThrows>>::Storage" = type { %"class.absl::FixedArray<testing::ThrowingValue<testing::TypeSpec::kEverythingThrows>, 25, testing::ThrowingAllocator<testing::ThrowingValue<testing::TypeSpec::kEverythingThrows>, testing::AllocSpec::kEverythingThrows>>::NonEmptyInlinedStorage", %"class.absl::container_internal::CompressedTuple.43", ptr }
%"class.absl::FixedArray<testing::ThrowingValue<testing::TypeSpec::kEverythingThrows>, 25, testing::ThrowingAllocator<testing::ThrowingValue<testing::TypeSpec::kEverythingThrows>, testing::AllocSpec::kEverythingThrows>>::NonEmptyInlinedStorage" = type { [100 x i8] }
%"class.absl::container_internal::CompressedTuple.43" = type { %"struct.absl::container_internal::internal_compressed_tuple::CompressedTupleImpl.44" }
%"struct.absl::container_internal::internal_compressed_tuple::CompressedTupleImpl.44" = type { %"struct.absl::container_internal::internal_compressed_tuple::Storage", %"struct.absl::container_internal::internal_compressed_tuple::Storage.45" }
%"struct.absl::container_internal::internal_compressed_tuple::Storage.45" = type { %"class.testing::ThrowingAllocator" }
%"class.testing::ThrowingAllocator" = type { %"class.std::shared_ptr" }
%"class.std::shared_ptr" = type { %"class.std::__shared_ptr" }
%"class.std::__shared_ptr" = type { ptr, %"class.std::__shared_count" }
%"class.std::__shared_count" = type { ptr }
%"struct.testing::exceptions_internal::UninitializedT" = type { i8 }
%"class.testing::exceptions_internal::ExceptionSafetyTestBuilder.133" = type { %"struct.testing::exceptions_internal::UninitializedT", %class.anon.134, %"class.std::tuple.136" }
%class.anon.134 = type { i8 }
%"class.std::tuple.136" = type { %"struct.std::_Tuple_impl.137" }
%"struct.std::_Tuple_impl.137" = type { %"struct.std::_Head_base.138" }
%"struct.std::_Head_base.138" = type { ptr }
%"class.testing::exceptions_internal::ExceptionSafetyTestBuilder.140" = type { %"class.testing::exceptions_internal::DefaultFactory.141", %class.anon.134, %"class.std::tuple.136" }
%"class.testing::exceptions_internal::DefaultFactory.141" = type { %"class.absl::FixedArray.42" }

; Function Attrs: mustprogress uwtable
define linkonce_odr dso_local void @_ZN7testing19exceptions_internal14DefaultFactoryIN4absl10FixedArrayINS_13ThrowingValueILNS_8TypeSpecE0EEELm25ENS_17ThrowingAllocatorIS6_LNS_9AllocSpecE0EEEEEEC2ERKSB_(ptr noundef nonnull align 8 dereferenceable(136) %this, ptr noundef nonnull align 8 dereferenceable(136) %0) unnamed_addr #4 comdat align 2 {
entry:
  %this.addr = alloca ptr, align 8
  %.addr = alloca ptr, align 8
  store ptr %this, ptr %this.addr, align 8
  store ptr %0, ptr %.addr, align 8
  %this1 = load ptr, ptr %this.addr, align 8
  %t_ = getelementptr inbounds %"class.testing::exceptions_internal::DefaultFactory.141", ptr %this1, i32 0, i32 0
  %1 = load ptr, ptr %.addr, align 8
  %t_2 = getelementptr inbounds %"class.testing::exceptions_internal::DefaultFactory.141", ptr %1, i32 0, i32 0
  call void @_ZN4absl10FixedArrayIN7testing13ThrowingValueILNS1_8TypeSpecE0EEELm25ENS1_17ThrowingAllocatorIS4_LNS1_9AllocSpecE0EEEEC2ERKS8_(ptr noundef nonnull align 8 dereferenceable(136) %t_, ptr noundef nonnull align 8 dereferenceable(136) %t_2)
  ret void
}

; Function Attrs: mustprogress uwtable
define internal void @"_ZN7testing19exceptions_internal26ExceptionSafetyTestBuilderINS0_14DefaultFactoryIN4absl10FixedArrayINS_13ThrowingValueILNS_8TypeSpecE0EEELm25ENS_17ThrowingAllocatorIS7_LNS_9AllocSpecE0EEEEEEEZNS3_12_GLOBAL__N_144FixedArrayExceptionSafety_FillWithAlloc_Test8TestBodyEvE3$_0JPFNS_15AssertionResultEPSB_EEEC2ERKSC_RKSF_RKSt5tupleIJSJ_EE"(ptr noundef nonnull align 8 dereferenceable(152) %this, ptr noundef nonnull align 8 dereferenceable(136) %f, ptr noundef nonnull align 1 dereferenceable(1) %o, ptr noundef nonnull align 8 dereferenceable(8) %i) unnamed_addr #4 align 2 {
entry:
  %this.addr = alloca ptr, align 8
  %f.addr = alloca ptr, align 8
  %o.addr = alloca ptr, align 8
  %i.addr = alloca ptr, align 8
  store ptr %this, ptr %this.addr, align 8
  store ptr %f, ptr %f.addr, align 8
  store ptr %o, ptr %o.addr, align 8
  store ptr %i, ptr %i.addr, align 8
  %this1 = load ptr, ptr %this.addr, align 8
  %factory_ = getelementptr inbounds %"class.testing::exceptions_internal::ExceptionSafetyTestBuilder.140", ptr %this1, i32 0, i32 0
  %0 = load ptr, ptr %f.addr, align 8
  call void @_ZN7testing19exceptions_internal14DefaultFactoryIN4absl10FixedArrayINS_13ThrowingValueILNS_8TypeSpecE0EEELm25ENS_17ThrowingAllocatorIS6_LNS_9AllocSpecE0EEEEEEC2ERKSB_(ptr noundef nonnull align 8 dereferenceable(136) %factory_, ptr noundef nonnull align 8 dereferenceable(136) %0)
  %contracts_ = getelementptr inbounds %"class.testing::exceptions_internal::ExceptionSafetyTestBuilder.140", ptr %this1, i32 0, i32 2
  %1 = load ptr, ptr %i.addr, align 8
  call void @llvm.memcpy.p0.p0.i64(ptr align 8 %contracts_, ptr align 8 %1, i64 8, i1 false)
  ret void
}

; Function Attrs: mustprogress uwtable
define internal void @"_ZNK7testing19exceptions_internal26ExceptionSafetyTestBuilderINS0_14UninitializedTEZN4absl12_GLOBAL__N_144FixedArrayExceptionSafety_FillWithAlloc_Test8TestBodyEvE3$_0JPFNS_15AssertionResultEPNS3_10FixedArrayINS_13ThrowingValueILNS_8TypeSpecE0EEELm25ENS_17ThrowingAllocatorISB_LNS_9AllocSpecE0EEEEEEEE11WithFactoryINS0_14DefaultFactoryISF_EEEENS1_INSt5decayIT_E4typeES6_JSI_EEERKSO_"(ptr noalias sret(%"class.testing::exceptions_internal::ExceptionSafetyTestBuilder.140") align 8 %agg.result, ptr noundef nonnull align 8 dereferenceable(16) %this, ptr noundef nonnull align 8 dereferenceable(136) %new_factory) #4 align 2 {
entry:
  %result.ptr = alloca ptr, align 8
  %this.addr = alloca ptr, align 8
  %new_factory.addr = alloca ptr, align 8
  store ptr %agg.result, ptr %result.ptr, align 8
  store ptr %this, ptr %this.addr, align 8
  store ptr %new_factory, ptr %new_factory.addr, align 8
  %this1 = load ptr, ptr %this.addr, align 8
  %0 = load ptr, ptr %new_factory.addr, align 8
  %operation_ = getelementptr inbounds %"class.testing::exceptions_internal::ExceptionSafetyTestBuilder.133", ptr %this1, i32 0, i32 1
  %contracts_ = getelementptr inbounds %"class.testing::exceptions_internal::ExceptionSafetyTestBuilder.133", ptr %this1, i32 0, i32 2
  call void @"_ZN7testing19exceptions_internal26ExceptionSafetyTestBuilderINS0_14DefaultFactoryIN4absl10FixedArrayINS_13ThrowingValueILNS_8TypeSpecE0EEELm25ENS_17ThrowingAllocatorIS7_LNS_9AllocSpecE0EEEEEEEZNS3_12_GLOBAL__N_144FixedArrayExceptionSafety_FillWithAlloc_Test8TestBodyEvE3$_0JPFNS_15AssertionResultEPSB_EEEC2ERKSC_RKSF_RKSt5tupleIJSJ_EE"(ptr noundef nonnull align 8 dereferenceable(152) %agg.result, ptr noundef nonnull align 8 dereferenceable(136) %0, ptr noundef nonnull align 1 dereferenceable(1) %operation_, ptr noundef nonnull align 8 dereferenceable(8) %contracts_)
  ret void
}

; Function Attrs: mustprogress uwtable
define linkonce_odr dso_local void @_ZN7testing19exceptions_internal14DefaultFactoryIN4absl10FixedArrayINS_13ThrowingValueILNS_8TypeSpecE0EEELm25ENS_17ThrowingAllocatorIS6_LNS_9AllocSpecE0EEEEEEC2ERKSA_(ptr noundef nonnull align 8 dereferenceable(136) %this, ptr noundef nonnull align 8 dereferenceable(136) %t) unnamed_addr #4 comdat align 2 {
entry:
  %this.addr = alloca ptr, align 8
  %t.addr = alloca ptr, align 8
  store ptr %this, ptr %this.addr, align 8
  store ptr %t, ptr %t.addr, align 8
  %this1 = load ptr, ptr %this.addr, align 8
  %t_ = getelementptr inbounds %"class.testing::exceptions_internal::DefaultFactory.141", ptr %this1, i32 0, i32 0
  %0 = load ptr, ptr %t.addr, align 8
  call void @_ZN4absl10FixedArrayIN7testing13ThrowingValueILNS1_8TypeSpecE0EEELm25ENS1_17ThrowingAllocatorIS4_LNS1_9AllocSpecE0EEEEC2ERKS8_(ptr noundef nonnull align 8 dereferenceable(136) %t_, ptr noundef nonnull align 8 dereferenceable(136) %0)
  ret void
}

; Function Attrs: mustprogress uwtable
define internal void @"_ZNK7testing19exceptions_internal26ExceptionSafetyTestBuilderINS0_14UninitializedTEZN4absl12_GLOBAL__N_144FixedArrayExceptionSafety_FillWithAlloc_Test8TestBodyEvE3$_0JPFNS_15AssertionResultEPNS3_10FixedArrayINS_13ThrowingValueILNS_8TypeSpecE0EEELm25ENS_17ThrowingAllocatorISB_LNS_9AllocSpecE0EEEEEEEE16WithInitialValueISF_EENS1_INS0_14DefaultFactoryIT_EES6_JSI_EEERKSM_"(ptr noalias sret(%"class.testing::exceptions_internal::ExceptionSafetyTestBuilder.140") align 8 %agg.result, ptr noundef nonnull align 8 dereferenceable(16) %this, ptr noundef nonnull align 8 dereferenceable(136) %t) #4 align 2 personality ptr @__gxx_personality_v0 {
entry:
  %result.ptr = alloca ptr, align 8
  %this.addr = alloca ptr, align 8
  %t.addr = alloca ptr, align 8
  %ref.tmp = alloca %"class.testing::exceptions_internal::DefaultFactory.141", align 8
  %exn.slot = alloca ptr, align 8
  %ehselector.slot = alloca i32, align 4
  store ptr %agg.result, ptr %result.ptr, align 8
  store ptr %this, ptr %this.addr, align 8
  store ptr %t, ptr %t.addr, align 8
  %this1 = load ptr, ptr %this.addr, align 8
  %0 = load ptr, ptr %t.addr, align 8
  call void @_ZN7testing19exceptions_internal14DefaultFactoryIN4absl10FixedArrayINS_13ThrowingValueILNS_8TypeSpecE0EEELm25ENS_17ThrowingAllocatorIS6_LNS_9AllocSpecE0EEEEEEC2ERKSA_(ptr noundef nonnull align 8 dereferenceable(136) %ref.tmp, ptr noundef nonnull align 8 dereferenceable(136) %0)
  invoke void @"_ZNK7testing19exceptions_internal26ExceptionSafetyTestBuilderINS0_14UninitializedTEZN4absl12_GLOBAL__N_144FixedArrayExceptionSafety_FillWithAlloc_Test8TestBodyEvE3$_0JPFNS_15AssertionResultEPNS3_10FixedArrayINS_13ThrowingValueILNS_8TypeSpecE0EEELm25ENS_17ThrowingAllocatorISB_LNS_9AllocSpecE0EEEEEEEE11WithFactoryINS0_14DefaultFactoryISF_EEEENS1_INSt5decayIT_E4typeES6_JSI_EEERKSO_"(ptr sret(%"class.testing::exceptions_internal::ExceptionSafetyTestBuilder.140") align 8 %agg.result, ptr noundef nonnull align 8 dereferenceable(16) %this1, ptr noundef nonnull align 8 dereferenceable(136) %ref.tmp)
          to label %invoke.cont unwind label %lpad

invoke.cont:                                      ; preds = %entry
  call void @_ZN7testing19exceptions_internal14DefaultFactoryIN4absl10FixedArrayINS_13ThrowingValueILNS_8TypeSpecE0EEELm25ENS_17ThrowingAllocatorIS6_LNS_9AllocSpecE0EEEEEED2Ev(ptr noundef nonnull align 8 dereferenceable(136) %ref.tmp) #3
  ret void

lpad:                                             ; preds = %entry
  %1 = landingpad { ptr, i32 }
          cleanup
  %2 = extractvalue { ptr, i32 } %1, 0
  store ptr %2, ptr %exn.slot, align 8
  %3 = extractvalue { ptr, i32 } %1, 1
  store i32 %3, ptr %ehselector.slot, align 4
  call void @_ZN7testing19exceptions_internal14DefaultFactoryIN4absl10FixedArrayINS_13ThrowingValueILNS_8TypeSpecE0EEELm25ENS_17ThrowingAllocatorIS6_LNS_9AllocSpecE0EEEEEED2Ev(ptr noundef nonnull align 8 dereferenceable(136) %ref.tmp) #3
  br label %eh.resume

eh.resume:                                        ; preds = %lpad
  %exn = load ptr, ptr %exn.slot, align 8
  %sel = load i32, ptr %ehselector.slot, align 4
  %lpad.val = insertvalue { ptr, i32 } poison, ptr %exn, 0
  %lpad.val2 = insertvalue { ptr, i32 } %lpad.val, i32 %sel, 1
  resume { ptr, i32 } %lpad.val2
}