; Function Attrs: mustprogress uwtable
define internal fastcc void @"_ZNK7testing19exceptions_internal26ExceptionSafetyTestBuilderINS0_14UninitializedTEZN4absl12_GLOBAL__N_144FixedArrayExceptionSafety_FillWithAlloc_Test8TestBodyEvE3$_0JPFNS_15AssertionResultEPNS3_10FixedArrayINS_13ThrowingValueILNS_8TypeSpecE0EEELm25ENS_17ThrowingAllocatorISB_LNS_9AllocSpecE0EEEEEEEE16WithInitialValueISF_EENS1_INS0_14DefaultFactoryIT_EES6_JSI_EEERKSM_"(ptr noalias align 8 %agg.result, ptr nocapture noundef nonnull readonly align 8 dereferenceable(16) %this, ptr noundef nonnull align 8 dereferenceable(136) %t) unnamed_addr #3 align 2 personality ptr @__gxx_personality_v0 {
entry:
  %ref.tmp = alloca %"class.testing::exceptions_internal::DefaultFactory.141", align 8
  call void @_ZN4absl10FixedArrayIN7testing13ThrowingValueILNS1_8TypeSpecE0EEELm25ENS1_17ThrowingAllocatorIS4_LNS1_9AllocSpecE0EEEEC2ERKS8_(ptr noundef nonnull align 8 dereferenceable(136) %ref.tmp, ptr noundef nonnull align 8 dereferenceable(136) %t)
  call void @llvm.experimental.noalias.scope.decl(metadata !142)
  invoke void @_ZN4absl10FixedArrayIN7testing13ThrowingValueILNS1_8TypeSpecE0EEELm25ENS1_17ThrowingAllocatorIS4_LNS1_9AllocSpecE0EEEEC2ERKS8_(ptr noundef nonnull align 8 dereferenceable(136) %agg.result, ptr noundef nonnull align 8 dereferenceable(136) %ref.tmp)
          to label %invoke.cont unwind label %lpad

invoke.cont:                                      ; preds = %entry
  %contracts_.i = getelementptr inbounds i8, ptr %this, i64 8
  %contracts_.i.i = getelementptr inbounds i8, ptr %agg.result, i64 144
  %0 = load i64, ptr %contracts_.i, align 8, !noalias !142
  store i64 %0, ptr %contracts_.i.i, align 8, !alias.scope !142
  %data_.i.i.i = getelementptr inbounds i8, ptr %ref.tmp, i64 128
  %size_alloc_.i.i.i.i = getelementptr inbounds i8, ptr %ref.tmp, i64 104
  %1 = load i64, ptr %size_alloc_.i.i.i.i, align 8
  %cmp.not4.i.i = icmp eq i64 %1, 0
  br i1 %cmp.not4.i.i, label %_ZN7testing19exceptions_internal14DefaultFactoryIN4absl10FixedArrayINS_13ThrowingValueILNS_8TypeSpecE0EEELm25ENS_17ThrowingAllocatorIS6_LNS_9AllocSpecE0EEEEEED2Ev.exit, label %invoke.cont5.lr.ph.i.i

invoke.cont5.lr.ph.i.i:                           ; preds = %invoke.cont
  %2 = load ptr, ptr %data_.i.i.i, align 8
  %add.ptr.i.i.i.i = getelementptr inbounds i8, ptr %ref.tmp, i64 112
  br label %invoke.cont5.i.i

invoke.cont5.i.i:                                 ; preds = %_ZNSt16allocator_traitsIN7testing17ThrowingAllocatorINS0_13ThrowingValueILNS0_8TypeSpecE0EEELNS0_9AllocSpecE0EEEE7destroyIS4_EEvRS6_PT_.exit.i.i, %invoke.cont5.lr.ph.i.i
  %cur.05.i.i = phi ptr [ %2, %invoke.cont5.lr.ph.i.i ], [ %incdec.ptr.i.i, %_ZNSt16allocator_traitsIN7testing17ThrowingAllocatorINS0_13ThrowingValueILNS0_8TypeSpecE0EEELNS0_9AllocSpecE0EEEE7destroyIS4_EEvRS6_PT_.exit.i.i ]
  %3 = load ptr, ptr %add.ptr.i.i.i.i, align 8
  %4 = load i32, ptr %3, align 4
  %cmp.i.i.i.i.i.i = icmp slt i32 %4, 0
  br i1 %cmp.i.i.i.i.i.i, label %if.then.i.i.i.i.i.i, label %_ZN7testing17ThrowingAllocatorINS_13ThrowingValueILNS_8TypeSpecE0EEELNS_9AllocSpecE0EE9ReadStateEv.exit.i.i.i.i.i

if.then.i.i.i.i.i.i:                              ; preds = %invoke.cont5.i.i
  call void @abort() #21
  unreachable

_ZN7testing17ThrowingAllocatorINS_13ThrowingValueILNS_8TypeSpecE0EEELNS_9AllocSpecE0EE9ReadStateEv.exit.i.i.i.i.i: ; preds = %invoke.cont5.i.i
  invoke void @_ZN7testing19exceptions_internal18ConstructorTracker16ObjectDestructedEPv(ptr noundef nonnull %cur.05.i.i)
          to label %_ZNSt16allocator_traitsIN7testing17ThrowingAllocatorINS0_13ThrowingValueILNS0_8TypeSpecE0EEELNS0_9AllocSpecE0EEEE7destroyIS4_EEvRS6_PT_.exit.i.i unwind label %terminate.lpad.i.i.i.i.i.i.i

terminate.lpad.i.i.i.i.i.i.i:                     ; preds = %_ZN7testing17ThrowingAllocatorINS_13ThrowingValueILNS_8TypeSpecE0EEELNS_9AllocSpecE0EE9ReadStateEv.exit.i.i.i.i.i
  %5 = landingpad { ptr, i32 }
          catch ptr null
  %6 = extractvalue { ptr, i32 } %5, 0
  call void @__clang_call_terminate(ptr %6) #21
  unreachable

_ZNSt16allocator_traitsIN7testing17ThrowingAllocatorINS0_13ThrowingValueILNS0_8TypeSpecE0EEELNS0_9AllocSpecE0EEEE7destroyIS4_EEvRS6_PT_.exit.i.i: ; preds = %_ZN7testing17ThrowingAllocatorINS_13ThrowingValueILNS_8TypeSpecE0EEELNS_9AllocSpecE0EE9ReadStateEv.exit.i.i.i.i.i
  %incdec.ptr.i.i = getelementptr inbounds i8, ptr %cur.05.i.i, i64 4
  %7 = load ptr, ptr %data_.i.i.i, align 8
  %8 = load i64, ptr %size_alloc_.i.i.i.i, align 8
  %add.ptr.i.i.i = getelementptr inbounds %"class.testing::ThrowingValue", ptr %7, i64 %8
  %cmp.not.i.i = icmp eq ptr %incdec.ptr.i.i, %add.ptr.i.i.i
  br i1 %cmp.not.i.i, label %_ZN7testing19exceptions_internal14DefaultFactoryIN4absl10FixedArrayINS_13ThrowingValueILNS_8TypeSpecE0EEELm25ENS_17ThrowingAllocatorIS6_LNS_9AllocSpecE0EEEEEED2Ev.exit, label %invoke.cont5.i.i, !llvm.loop !22

_ZN7testing19exceptions_internal14DefaultFactoryIN4absl10FixedArrayINS_13ThrowingValueILNS_8TypeSpecE0EEELm25ENS_17ThrowingAllocatorIS6_LNS_9AllocSpecE0EEEEEED2Ev.exit: ; preds = %_ZNSt16allocator_traitsIN7testing17ThrowingAllocatorINS0_13ThrowingValueILNS0_8TypeSpecE0EEELNS0_9AllocSpecE0EEEE7destroyIS4_EEvRS6_PT_.exit.i.i, %invoke.cont
  call void @_ZN4absl10FixedArrayIN7testing13ThrowingValueILNS1_8TypeSpecE0EEELm25ENS1_17ThrowingAllocatorIS4_LNS1_9AllocSpecE0EEEE7StorageD2Ev(ptr noundef nonnull align 8 dereferenceable(136) %ref.tmp) #18
  ret void

lpad:                                             ; preds = %entry
  %9 = landingpad { ptr, i32 }
          cleanup
  call void @_ZN7testing19exceptions_internal14DefaultFactoryIN4absl10FixedArrayINS_13ThrowingValueILNS_8TypeSpecE0EEELm25ENS_17ThrowingAllocatorIS6_LNS_9AllocSpecE0EEEEEED2Ev(ptr noundef nonnull align 8 dereferenceable(136) %ref.tmp) #18
  resume { ptr, i32 } %9
}